target datalayout = "e-m:e-p270:32:32-p271:32:32-p272:64:64-i64:64-i128:128-f80:128-n8:16:32:64-S128"
target triple = "x86_64-pc-linux-gnu"

@.str.78 = private unnamed_addr constant [68 x i8] c"%s displays control information of a PostgreSQL database cluster.\0A\0A\00", align 1
@.str.79 = private unnamed_addr constant [8 x i8] c"Usage:\0A\00", align 1
@.str.80 = private unnamed_addr constant [25 x i8] c"  %s [OPTION] [DATADIR]\0A\00", align 1
@.str.81 = private unnamed_addr constant [11 x i8] c"\0AOptions:\0A\00", align 1
@.str.82 = private unnamed_addr constant [41 x i8] c" [-D, --pgdata=]DATADIR  data directory\0A\00", align 1
@.str.83 = private unnamed_addr constant [64 x i8] c"  -V, --version          output version information, then exit\0A\00", align 1
@.str.84 = private unnamed_addr constant [52 x i8] c"  -?, --help             show this help, then exit\0A\00", align 1
@.str.85 = private unnamed_addr constant [89 x i8] c"\0AIf no data directory (DATADIR) is specified, the environment variable PGDATA\0Ais used.\0A\0A\00", align 1
@.str.86 = private unnamed_addr constant [22 x i8] c"Report bugs to <%s>.\0A\00", align 1
@.str.87 = private unnamed_addr constant [32 x i8] c"pgsql-bugs@lists.postgresql.org\00", align 1
@.str.88 = private unnamed_addr constant [20 x i8] c"%s home page: <%s>\0A\00", align 1
@.str.89 = private unnamed_addr constant [11 x i8] c"PostgreSQL\00", align 1
@.str.90 = private unnamed_addr constant [28 x i8] c"https://www.postgresql.org/\00", align 1

; Function Attrs: nounwind uwtable
define internal void @usage(ptr noundef %0) #0 {
  %2 = alloca ptr, align 8
  store ptr %0, ptr %2, align 8
  %3 = load ptr, ptr %2, align 8
  %4 = call i32 (ptr, ...) @pg_printf(ptr noundef @.str.78, ptr noundef %3)
  %5 = call i32 (ptr, ...) @pg_printf(ptr noundef @.str.79)
  %6 = load ptr, ptr %2, align 8
  %7 = call i32 (ptr, ...) @pg_printf(ptr noundef @.str.80, ptr noundef %6)
  %8 = call i32 (ptr, ...) @pg_printf(ptr noundef @.str.81)
  %9 = call i32 (ptr, ...) @pg_printf(ptr noundef @.str.82)
  %10 = call i32 (ptr, ...) @pg_printf(ptr noundef @.str.83)
  %11 = call i32 (ptr, ...) @pg_printf(ptr noundef @.str.84)
  %12 = call i32 (ptr, ...) @pg_printf(ptr noundef @.str.85)
  %13 = call i32 (ptr, ...) @pg_printf(ptr noundef @.str.86, ptr noundef @.str.87)
  %14 = call i32 (ptr, ...) @pg_printf(ptr noundef @.str.88, ptr noundef @.str.89, ptr noundef @.str.90)
  ret void
}