; Function Attrs: nounwind uwtable
define internal fastcc void @usage(ptr noundef %0) unnamed_addr #0 {
  %2 = tail call i32 (ptr, ...) @pg_printf(ptr noundef nonnull @.str.78, ptr noundef %0) #9
  %3 = tail call i32 (ptr, ...) @pg_printf(ptr noundef nonnull @.str.79) #9
  %4 = tail call i32 (ptr, ...) @pg_printf(ptr noundef nonnull @.str.80, ptr noundef %0) #9
  %5 = tail call i32 (ptr, ...) @pg_printf(ptr noundef nonnull @.str.81) #9
  %6 = tail call i32 (ptr, ...) @pg_printf(ptr noundef nonnull @.str.82) #9
  %7 = tail call i32 (ptr, ...) @pg_printf(ptr noundef nonnull @.str.83) #9
  %8 = tail call i32 (ptr, ...) @pg_printf(ptr noundef nonnull @.str.84) #9
  %9 = tail call i32 (ptr, ...) @pg_printf(ptr noundef nonnull @.str.85) #9
  %10 = tail call i32 (ptr, ...) @pg_printf(ptr noundef nonnull @.str.86, ptr noundef nonnull @.str.87) #9
  %11 = tail call i32 (ptr, ...) @pg_printf(ptr noundef nonnull @.str.88, ptr noundef nonnull @.str.89, ptr noundef nonnull @.str.90) #9
  ret void
}